; Function Attrs: mustprogress nofree norecurse nounwind willreturn memory(readwrite, inaccessiblemem: none) uwtable
define noundef i64 @_ZN32pxrInternal_v0_24__pxrReserved__11TfMallocTag13GetTotalBytesEv() local_unnamed_addr #10 align 2 {
  %1 = load ptr, ptr @_ZN32pxrInternal_v0_24__pxrReserved__L17_mallocGlobalDataE, align 8
  %.not = icmp eq ptr %1, null
  br i1 %.not, label %5, label %2

2:                                                ; preds = %0
  %3 = getelementptr inbounds nuw i8, ptr %1, i64 24
  %4 = load atomic i64, ptr %3 seq_cst, align 8
  br label %5

5:                                                ; preds = %0, %2
  %.0 = phi i64 [ %4, %2 ], [ 0, %0 ]
  ret i64 %.0
}